; Function Attrs: mustprogress nofree norecurse nosync nounwind willreturn memory(readwrite, argmem: write, inaccessiblemem: none) uwtable
define hidden void @_ZN24java_lang_reflect_Method8set_slotEP7oopDesci(ptr noundef %0, i32 noundef %1) local_unnamed_addr #6 align 2 {
  %3 = load i32, ptr @_ZN24java_lang_reflect_Method12_slot_offsetE, align 4
  %4 = ptrtoint ptr %0 to i64
  %5 = sext i32 %3 to i64
  %6 = add nsw i64 %5, %4
  %7 = inttoptr i64 %6 to ptr
  store i32 %1, ptr %7, align 4
  ret void
}